target datalayout = "e-m:e-p270:32:32-p271:32:32-p272:64:64-i64:64-i128:128-f80:128-n8:16:32:64-S128"
target triple = "x86_64-pc-linux-gnu"

%class.Sample = type { ptr, ptr, ptr, ptr, ptr, i8, float, float, float, float, float, float, float, float, float, float, float, float, float, i32, i8, i8, i8, ptr, [9 x ptr], ptr, %class.SampleDebugDraw }
%class.SampleDebugDraw = type { %class.DebugDrawGL }
%class.DebugDrawGL = type { %struct.duDebugDraw }
%struct.duDebugDraw = type { ptr }
%struct.BuildSettings = type { float, float, float, float, float, float, float, float, float, float, float, float, float, i32, [3 x float], [3 x float], float }

; Function Attrs: mustprogress nounwind uwtable
define dso_local void @_ZN6Sample15collectSettingsER13BuildSettings(ptr noundef nonnull align 8 dereferenceable(200) %0, ptr noundef nonnull align 4 dereferenceable(84) %1) unnamed_addr #0 align 2 {
  %3 = alloca ptr, align 8
  %4 = alloca ptr, align 8
  store ptr %0, ptr %3, align 8
  store ptr %1, ptr %4, align 8
  %5 = load ptr, ptr %3, align 8
  %6 = getelementptr inbounds %class.Sample, ptr %5, i32 0, i32 6
  %7 = load float, ptr %6, align 4
  %8 = load ptr, ptr %4, align 8
  %9 = getelementptr inbounds %struct.BuildSettings, ptr %8, i32 0, i32 0
  store float %7, ptr %9, align 4
  %10 = getelementptr inbounds %class.Sample, ptr %5, i32 0, i32 7
  %11 = load float, ptr %10, align 8
  %12 = load ptr, ptr %4, align 8
  %13 = getelementptr inbounds %struct.BuildSettings, ptr %12, i32 0, i32 1
  store float %11, ptr %13, align 4
  %14 = getelementptr inbounds %class.Sample, ptr %5, i32 0, i32 8
  %15 = load float, ptr %14, align 4
  %16 = load ptr, ptr %4, align 8
  %17 = getelementptr inbounds %struct.BuildSettings, ptr %16, i32 0, i32 2
  store float %15, ptr %17, align 4
  %18 = getelementptr inbounds %class.Sample, ptr %5, i32 0, i32 9
  %19 = load float, ptr %18, align 8
  %20 = load ptr, ptr %4, align 8
  %21 = getelementptr inbounds %struct.BuildSettings, ptr %20, i32 0, i32 3
  store float %19, ptr %21, align 4
  %22 = getelementptr inbounds %class.Sample, ptr %5, i32 0, i32 10
  %23 = load float, ptr %22, align 4
  %24 = load ptr, ptr %4, align 8
  %25 = getelementptr inbounds %struct.BuildSettings, ptr %24, i32 0, i32 4
  store float %23, ptr %25, align 4
  %26 = getelementptr inbounds %class.Sample, ptr %5, i32 0, i32 11
  %27 = load float, ptr %26, align 8
  %28 = load ptr, ptr %4, align 8
  %29 = getelementptr inbounds %struct.BuildSettings, ptr %28, i32 0, i32 5
  store float %27, ptr %29, align 4
  %30 = getelementptr inbounds %class.Sample, ptr %5, i32 0, i32 12
  %31 = load float, ptr %30, align 4
  %32 = load ptr, ptr %4, align 8
  %33 = getelementptr inbounds %struct.BuildSettings, ptr %32, i32 0, i32 6
  store float %31, ptr %33, align 4
  %34 = getelementptr inbounds %class.Sample, ptr %5, i32 0, i32 13
  %35 = load float, ptr %34, align 8
  %36 = load ptr, ptr %4, align 8
  %37 = getelementptr inbounds %struct.BuildSettings, ptr %36, i32 0, i32 7
  store float %35, ptr %37, align 4
  %38 = getelementptr inbounds %class.Sample, ptr %5, i32 0, i32 14
  %39 = load float, ptr %38, align 4
  %40 = load ptr, ptr %4, align 8
  %41 = getelementptr inbounds %struct.BuildSettings, ptr %40, i32 0, i32 8
  store float %39, ptr %41, align 4
  %42 = getelementptr inbounds %class.Sample, ptr %5, i32 0, i32 15
  %43 = load float, ptr %42, align 8
  %44 = load ptr, ptr %4, align 8
  %45 = getelementptr inbounds %struct.BuildSettings, ptr %44, i32 0, i32 9
  store float %43, ptr %45, align 4
  %46 = getelementptr inbounds %class.Sample, ptr %5, i32 0, i32 16
  %47 = load float, ptr %46, align 4
  %48 = load ptr, ptr %4, align 8
  %49 = getelementptr inbounds %struct.BuildSettings, ptr %48, i32 0, i32 10
  store float %47, ptr %49, align 4
  %50 = getelementptr inbounds %class.Sample, ptr %5, i32 0, i32 17
  %51 = load float, ptr %50, align 8
  %52 = load ptr, ptr %4, align 8
  %53 = getelementptr inbounds %struct.BuildSettings, ptr %52, i32 0, i32 11
  store float %51, ptr %53, align 4
  %54 = getelementptr inbounds %class.Sample, ptr %5, i32 0, i32 18
  %55 = load float, ptr %54, align 4
  %56 = load ptr, ptr %4, align 8
  %57 = getelementptr inbounds %struct.BuildSettings, ptr %56, i32 0, i32 12
  store float %55, ptr %57, align 4
  %58 = getelementptr inbounds %class.Sample, ptr %5, i32 0, i32 19
  %59 = load i32, ptr %58, align 8
  %60 = load ptr, ptr %4, align 8
  %61 = getelementptr inbounds %struct.BuildSettings, ptr %60, i32 0, i32 13
  store i32 %59, ptr %61, align 4
  ret void
}