; Function Attrs: mustprogress nofree norecurse nosync nounwind willreturn memory(argmem: readwrite) uwtable
define dso_local void @_ZN6Sample15collectSettingsER13BuildSettings(ptr nocapture noundef nonnull readonly align 8 dereferenceable(200) %0, ptr nocapture noundef nonnull writeonly align 4 dereferenceable(84) %1) unnamed_addr #9 align 2 {
  %3 = getelementptr inbounds i8, ptr %0, i64 44
  %4 = load float, ptr %3, align 4
  store float %4, ptr %1, align 4
  %5 = getelementptr inbounds i8, ptr %0, i64 48
  %6 = load float, ptr %5, align 8
  %7 = getelementptr inbounds i8, ptr %1, i64 4
  store float %6, ptr %7, align 4
  %8 = getelementptr inbounds i8, ptr %0, i64 52
  %9 = load float, ptr %8, align 4
  %10 = getelementptr inbounds i8, ptr %1, i64 8
  store float %9, ptr %10, align 4
  %11 = getelementptr inbounds i8, ptr %0, i64 56
  %12 = load float, ptr %11, align 8
  %13 = getelementptr inbounds i8, ptr %1, i64 12
  store float %12, ptr %13, align 4
  %14 = getelementptr inbounds i8, ptr %0, i64 60
  %15 = load float, ptr %14, align 4
  %16 = getelementptr inbounds i8, ptr %1, i64 16
  store float %15, ptr %16, align 4
  %17 = getelementptr inbounds i8, ptr %0, i64 64
  %18 = load float, ptr %17, align 8
  %19 = getelementptr inbounds i8, ptr %1, i64 20
  store float %18, ptr %19, align 4
  %20 = getelementptr inbounds i8, ptr %0, i64 68
  %21 = load float, ptr %20, align 4
  %22 = getelementptr inbounds i8, ptr %1, i64 24
  store float %21, ptr %22, align 4
  %23 = getelementptr inbounds i8, ptr %0, i64 72
  %24 = load float, ptr %23, align 8
  %25 = getelementptr inbounds i8, ptr %1, i64 28
  store float %24, ptr %25, align 4
  %26 = getelementptr inbounds i8, ptr %0, i64 76
  %27 = load float, ptr %26, align 4
  %28 = getelementptr inbounds i8, ptr %1, i64 32
  store float %27, ptr %28, align 4
  %29 = getelementptr inbounds i8, ptr %0, i64 80
  %30 = load float, ptr %29, align 8
  %31 = getelementptr inbounds i8, ptr %1, i64 36
  store float %30, ptr %31, align 4
  %32 = getelementptr inbounds i8, ptr %0, i64 84
  %33 = load float, ptr %32, align 4
  %34 = getelementptr inbounds i8, ptr %1, i64 40
  store float %33, ptr %34, align 4
  %35 = getelementptr inbounds i8, ptr %0, i64 88
  %36 = load float, ptr %35, align 8
  %37 = getelementptr inbounds i8, ptr %1, i64 44
  store float %36, ptr %37, align 4
  %38 = getelementptr inbounds i8, ptr %0, i64 92
  %39 = load float, ptr %38, align 4
  %40 = getelementptr inbounds i8, ptr %1, i64 48
  store float %39, ptr %40, align 4
  %41 = getelementptr inbounds i8, ptr %0, i64 96
  %42 = load i32, ptr %41, align 8
  %43 = getelementptr inbounds i8, ptr %1, i64 52
  store i32 %42, ptr %43, align 4
  ret void
}